(dp1
S'output'
p2
S"<type 'exceptions.AttributeError'> "
p3
sS'layer'
p4
S'/Users/cpower/Development/iapt/applications/Practical4/views/store/books.html'
p5
sS'code'
p6
S'response.write(\'<!DOCTYPE html>\\n<html lang="en">\\n<head>\\n    <meta charset="utf-8">\\n\\n    <!-- Always force latest IE rendering engine (even in intranet) & Chrome Frame\\n    Remove this if you use the .htaccess -->\\n    <meta http-equiv="X-UA-Compatible" content="IE=edge,chrome=1">\\n\\n    <title>Congo Online Shop - Features</title>\\n    <meta name="description" content="">\\n    <meta name="author" content="Christopher Power">\\n    <!-- @IAPT Most straight forward way to include a stylesheet is by creating one using the URL helper -->\\n    <link rel="stylesheet" type="text/css" href="\', escape=False)\nresponse.write(URL(\'static\',\'css/iapt.css\'))\nresponse.write(\'" media="screen" />\\n\\n</head>\\n<body>\\n<!-- @IAPT: Extra div element id with main could be replaced by HTML5 extension spec <main> -->\\n\\n    <!--@IAPT: HTML5 element header helps add semantic structure the page, telling machines where the top of the page is -->\\n    <header>\\n        <h1>Congo Online Shop</h1>\\n    </header>\\n    <!--@IAPT: Semantic element nav helps SEO identify key options on the page -->\\n    <nav>\\n        <!-- @IAPT: A basic navigation list which is modified by CSS to be horizontal - note the use of the class .navlist -->\\n        <ul class="navlist">\\n            <!-- @IAPT: Note that local files like this will lead to the same application and same controller as the current page -->\\n            <li><a href="\', escape=False)\nresponse.write(URL(\'default\',\'index.html\'))\nresponse.write(\'">Features</a></li>\\n            <!-- @IAPT: This also works, but Web2Py provides elegant ways to rewrite URLS for controllers and callbacks -->\\n            <li><a href="\', escape=False)\nresponse.write(URL(\'store\',\'books.html\'))\nresponse.write(\'">Books</a></li>\\n            <li><a href="\', escape=False)\nresponse.write(URL(\'store\',\'videos.html\'))\nresponse.write(\'">Videos</a></li>\\n            <li><a href="\', escape=False)\nresponse.write(URL(\'default\',\'search.html\'))\nresponse.write(\'">Search</a></li>\\n            <li><a href="\', escape=False)\nresponse.write(URL(\'default\',\'addproduct.html\'))\nresponse.write(\'">New Product</a></li>\\n        </ul>\\n    </nav>\\n<div id="main">\\n\\n    <!-- @IAPT: This is where the body of your page will be included -->\\n    \', escape=False)\nresponse.write(\'\\n<div id="products">\\n<h2>Books</h2>\\n\\n        <!-- @IAPT: Books now includes a subview as of Practical 3 to promote code reuse -->\\n        \', escape=False)\nfor result in results:\n    response.write(\'\\n<!-- @IAPT: We can intersperse HTML within the Python statements -->\\n<div class="product">\\n<!-- @IAPT: Helper H3 puts an h3 header element around the text inside -->\\n<!-- @IAPT: In Practical 3 Part 4.3 this has been updated so that each heading has an anchor that leads\\nto an individual page for each product-->\\n\', escape=False)\n    response.write(H3(A(result.name, callback=URL(\'store\', \'books\', args=[result.id]))))\n    response.write(\'\\n<ul>\\n\\n    <li><strong>Publisher:</strong> \', escape=False)\n    response.write(result.publisher)\n    response.write(\'</li>\\n    <li><strong>Format:</strong> \', escape=False)\n    response.write(result.type)\n    response.write(\'</li>\\n    <li><strong>Price:</strong> \', escape=False)\n    response.write(result.price)\n    response.write(\'</li>\\n    <li><strong>Description:</strong> \', escape=False)\n    response.write(result.description)\n    response.write(\'</li>\\n\\n</ul>\\n</div>\\n\', escape=False)\n    pass\nresponse.write(\'\\n</div>\\n\', escape=False)\nresponse.write("\\n    <!-- @IAPT: \'pass\' is a python keyword that indicates it is the end of a block of python text -->\\n    ", escape=False)\npass\nresponse.write(\'\\n</div> <!-- main -->\\n<footer>\\n    <p>\\n        &copy; Copyright University of York, IAPT Module\\n    </p>\\n</footer>\\n\\n\\n\\n</body>\\n</html>\\n\\n\', escape=False)'
p7
sS'snapshot'
p8
(dp9
sS'traceback'
p10
S'Traceback (most recent call last):\n  File "/Users/cpower/Development/iapt/gluon/restricted.py", line 227, in restricted\n    exec ccode in environment\n  File "/Users/cpower/Development/iapt/applications/Practical4/views/store/books.html", line 21, in <module>\n  File "/Users/cpower/Development/iapt/gluon/packages/dal/pydal/objects.py", line 90, in __getattr__\n    raise AttributeError\nAttributeError\n'
p11
s.