(dp1
S'output'
p2
S"<type 'exceptions.ValueError'> Invalid control character at: line 8 column 141 (char 298)"
p3
sS'layer'
p4
S'/Users/cpower/Development/web2py/applications/Practical1Part4/controllers/default.py'
p5
sS'code'
p6
S'# -*- coding: utf-8 -*-\n# @IAPT: Very simple controller\n\nimport json\n\ndef index():\n    jsonStr = """{\n            "RECORDS":[\n            {\n            "id":"1",\n            "name":"Batman: Arkham Asylum",\n            "price":"9",\n            "type":"Book",\n            "description":"Written by Grant Morrison. Art and cover by Dave McKean In celebration of the 16th anniversary of the critically \\n                          acclaimed Batman story that helped launch the U.S. careers of Grant Morrison and Dave McKean, DC Comics is proud \\n                          to present a softcover edition of the Arkham Asylum Anniversary Edition, reprinting the now-classic confrontation \\n                          between the Dark Knight and his archnemeses the Joker, Two-Face, Scarecrow, Poison Ivy, and more in the black heart \\n                          of Gotham City&#39;s house for the criminally insane.",\n            "publisher":"DC Comics"\n            },\n            {\n            "id":"2",\n            "name":"Superman: Earth One",\n            "price":"7",\n            "type":"Book",\n            "description":"J. Michael Straczynski, the creator of Babylon 5, joins forces with rising star artist Shane Davis\\n                         (Superman/Batman: The Search for Kryptonite) to create this original graphic novel that gives new \\n                         insight into Clark Kent&#39;s transformation into Superman and his first year as The Man of Steel. \\n                         This is the first in a new wave of original DC Universe graphic novels, featuring top writers&#39; \\n                         and illustrators&#39; unique takes on DC characters.",\n            "publisher":"DC Comics"\n            },\n            {\n            "id":"3",\n            "name":"Wonder Woman: Eyes of the Gorgon",\n            "price":"8",\n            "type":"Book",\n            "description":"Written by Greg Rucka Art by Drew Johnson, James Raiz, Sean Phillips and Ray Snyder. Cover by \\n                          J.G. Jones. A new volume collecting WONDER WOMAN &#35;206-213! The deadly Medousa comes calling, \\n                          and Wonder Woman\'s world is turned completely upside-down. After a terrible sacrifice, the \\n                          Amazing Amazon must prove herself once again to her comrades in the JLA and to the world!",\n            "publisher":"DC Comics"\n            },\n            {\n            "id":"4",\n            "name":"Hulk: The End",\n            "price":"9.09",\n            "type":"Book",\n            "description":"Chronicling the final days of the Green Goliath! Peter David and Dale Keown, creative team on some of the Hulk\'s most memorable tales, reunite to produce this searing vision of the future in which Bruce Banner, the Incredible Hulk, is the last man on Earth. It\'s the Hulk\'s final battle, as \'The Last Titan\' wrestles his inner-demons in order to discover his place in a dying world - if only he can survive! Plus: The testing of the first Gamma Bomb thrust upon Robert Bruce Banner that which he would come to believe would be his greatest nightmare: his unwilling transformation into the",\n            "publisher":"Marvel Comics"\n            },\n            {\n            "id":"5",\n            "name":"X-Men: Days of Future Past",\n            "price":"14.99",\n            "type":"Book",\n            "description":"It was the best of times, it was the worst of times: Relive the legendary first journey into the dystopian future of 2013 - where Sentinels stalk the Earth, and the X-Men are humanity\'s only hope...until they die! Also featuring the first appearance of Alpha Flight, the return of the Wendigo, the history of the X-Men from Cyclops himself...and a demon for Christmas!? Collecting UNCANNY X-MEN (1963) #138-143 and X-MEN ANNUAL #4.",\n            "publisher":"Marvel Comics"\n            },\n            {\n            "id":"6",\n            "name":"Iron Man: Extremis",\n            "price":"7.69",\n            "type":"Book",\n            "description":"It\'s the beginning of a new era for Iron Man. Renowned scribe Warren Ellis joins forces with acclaimed illustrator Adi Granov to redefine the armored Avenger\'s world for the 21st century - a landscape of terrifying new technologies that threaten to overwhelm a fragile mankind! What is Extremis, who has unleashed it, and what does its emergence portend for the world? Collecting: Iron Man (2005) 1-6",\n            "publisher":"Marvel Comics"\n            },\n            {\n            "id":"7",\n            "name":"Avengers Assemble",\n            "price":"12",\n            "type":"Blu-Ray",\n            "description":"When Nick Fury (Samuel L. Jackson), the director of an international peacekeeping agency known as S.H.I.E.L.D., encounters an unexpected enemy that threatens global safety and security, he finds himself in need of a team to pull the world back from the brink of disaster. Spanning the globe, a daring recruitment effort begins for Earth?s mightiest heroes. Iron Man (Robert Downey Jr.), Captain America (Chris Evans), The Incredible Hulk (Mark Ruffalo), Thor (Chris Hemsworth), and two of the world?s greatest assassins, Black Widow (Scarlett Johansson) and Hawkeye (Jeremy Renner), must assemble to defeat Loki (Tom Hiddleston), the darkest villain the Earth has ever known.",\n            "publisher":"Walt Disney Studios Home Entertainment"\n            },\n            {\n            "id":"8",\n            "name":"Captain America: The First Avenger",\n            "price":"18.54",\n            "type":"Blu-Ray",\n            "description":"Superhero action adventure based on the 1940s Marvel Comics series. Chris Evans stars as Steve Rogers, who volunteers for a top secret military research project after being deemed physically unfit to enlist in the U.S. Army during the Second World War. The experiment transforms him into super-soldier Captain America, who - along with sidekick Bucky Barnes (Sebastian Stan) - takes on the mighty power of Hitler\'s henchman Red Skull (Hugo Weaving).",\n            "publisher":"Paramount Home Entertainment"\n            },\n            {\n            "id":"9",\n            "name":"Thor",\n            "price":"12.67",\n            "type":"Blu-Ray",\n            "description":"Kenneth Branagh directs this fantasy superhero adventure based on the Marvel comics character, which in turn is based on the ancient myth of Norse God of Thunder, Thor. Moving between present day Earth and the fantastic realm of Asgard, the film tells the story of the Mighty Thor (Chris Hemsworth), a powerful but arrogant warrior god whose reckless actions rekindle an ancient feud among the deities. As a punishment, Thor is cast out of Asgard and forced to live on Earth among humankind. There, he falls in love with scientist Jane Foster (Natalie Portman) and, as the darkest forces of Asgard are sent to invade Earth, eventually learns what it means to be a real hero.",\n            "publisher":"Paramount Home Entertainment"\n            },\n            {\n            "id":"10",\n            "name":"Superman: The Movie",\n            "price":"9.85",\n            "type":"Blu-Ray",\n            "description":"This star-packed extravaganza brings the comic book legend to the screen in grand style. It begins with Superman\'s scientist dad sending the infant superhero down to earth just as the home planet Krypton explodes into a zillion pieces. Taking up permanent residence on earth the young Superman grows up into super-normal reporter Clark Kent, wooing winsome colleague Lois Lane and keeping his true identity hidden from the world. But when three villains, led by Lex Luthor, come up with a dastardly real estate scheme that involves shoving California into the ocean, Clark Kent decides it\'s time to don his cape and fight the forces of evil.",\n            "publisher":"Warner Home Video"\n            },\n            {\n            "id":"11",\n            "name":"Batman: Begins",\n            "price":"7.67",\n            "type":"Blu-Ray",\n            "description":"Batman Begins explores the origins of the Batman legend and the Dark Knight\'s emergence as a force for good in Gotham. In the wake of his parents\' murder, disillusioned industrial heir Bruce Wayne (Christian Bale) travels the world seeking the means to fight injustice and turn fear against those who prey on the fearful. He returns to Gotham and unveils his alter-ego: Batman, a masked crusader who uses his strength, intellect and an array of high tech deceptions to fight the sinister forces that threaten the city.",\n            "publisher":"Warner Home Video"\n            },\n            {\n            "id":"12",\n            "name":"The Rocketeer",\n            "price":"21",\n            "type":"Blu-Ray",\n            "description":"Set in glamorous 1930s Hollywood, it tells the story of Cliff Secord, a down-on-his-luck pilot who stumbles upon an incredible invention - a top secret jetpack that allows him to soar through the skies like a human rocket. But before long, a sinister spy (Timothy Dalton) plots to steal the jetpack, thrusting Cliff into a dangerous mission that ultimately transforms him into an extraordinary hero. Praised by critics as a most entertaining film, Rocketeer is high-flying action-adventure at its very finest.",\n            "publisher":"Walt Disney Studios Home Entertainment"\n            }\n            ]\n            } """\n    jsonData = json.loads(jsonStr)\n\n    return jsonData[0]\n\nresponse._vars=response._caller(index)\n'
p7
sS'snapshot'
p8
(dp9
sS'traceback'
p10
S'Traceback (most recent call last):\n  File "/Users/cpower/Development/web2py/gluon/restricted.py", line 221, in restricted\n    ccode = code\n  File "/Users/cpower/Development/web2py/applications/Practical1Part4/controllers/default.py", line 111, in <module>\n  File "/Users/cpower/Development/web2py/gluon/globals.py", line 388, in <lambda>\n    self.meta = Storage()      # used by web2py_ajax.html\n  File "/Users/cpower/Development/web2py/applications/Practical1Part4/controllers/default.py", line 107, in index\n    jsonData = json.loads(jsonStr)\n  File "/opt/local/Library/Frameworks/Python.framework/Versions/2.7/lib/python2.7/json/__init__.py", line 338, in loads\n    return _default_decoder.decode(s)\n  File "/opt/local/Library/Frameworks/Python.framework/Versions/2.7/lib/python2.7/json/decoder.py", line 365, in decode\n    obj, end = self.raw_decode(s, idx=_w(s, 0).end())\n  File "/opt/local/Library/Frameworks/Python.framework/Versions/2.7/lib/python2.7/json/decoder.py", line 381, in raw_decode\n    obj, end = self.scan_once(s, idx)\nValueError: Invalid control character at: line 8 column 141 (char 298)\n'
p11
s.