(dp1
S'output'
p2
S"<type 'exceptions.ValueError'> Expecting property name: line 2 column 13 (char 14)"
p3
sS'layer'
p4
S'/Users/cpower/Development/web2py/applications/Practical1Part4/controllers/default.py'
p5
sS'code'
p6
S'# -*- coding: utf-8 -*-\n# @IAPT: Very simple controller\n\nimport json\n\ndef index():\n    jsonStr = """{\n            {\n            "id":"1",\n            "name":"Batman: Arkham Asylum",\n            "price":"9",\n            "type":"Book",\n            "description":"Written by Grant Morrison. Art and cover by Dave McKean In celebration of the 16th anniversary of the critically acclaimed Batman story that helped launch the U.S. careers of Grant Morrison and Dave McKean, DC Comics is proud to present a softcover edition of the Arkham Asylum Anniversary Edition, reprinting the now-classic confrontation between the Dark Knight and his archnemeses the Joker, Two-Face, Scarecrow, Poison Ivy, and more in the black heart of Gotham City&#39;s house for the criminally insane.",\n            "publisher":"DC Comics"\n            },\n            {\n            "id":"2",\n            "name":"Superman: Earth One",\n            "price":"7",\n            "type":"Book",\n            "description":"J. Michael Straczynski, the creator of Babylon 5, joins forces with rising star artist Shane Davis (Superman/Batman: The Search for Kryptonite) to create this original graphic novel that gives new insight into Clark Kent&#39;s transformation into Superman and his first year as The Man of Steel. This is the first in a new wave of original DC Universe graphic novels, featuring top writers&#39; and illustrators&#39; unique takes on DC characters.",\n            "publisher":"DC Comics"\n            },\n            {\n            "id":"3",\n            "name":"Wonder Woman: Eyes of the Gorgon",\n            "price":"8",\n            "type":"Book",\n            "description":"Written by Greg Rucka Art by Drew Johnson, James Raiz, Sean Phillips and Ray Snyder. Cover by J.G. Jones. A new volume collecting WONDER WOMAN &#35;206-213! The deadly Medousa comes calling, and Wonder Woman\'s world is turned completely upside-down. After a terrible sacrifice, the Amazing Amazon must prove herself once again to her comrades in the JLA and to the world!",\n            "publisher":"DC Comics"\n            }\n            } """\n    jsonData = json.loads(jsonStr)\n\n    return jsonData[0]\n\nresponse._vars=response._caller(index)\n'
p7
sS'snapshot'
p8
(dp9
sS'traceback'
p10
S'Traceback (most recent call last):\n  File "/Users/cpower/Development/web2py/gluon/restricted.py", line 221, in restricted\n    ccode = code\n  File "/Users/cpower/Development/web2py/applications/Practical1Part4/controllers/default.py", line 37, in <module>\n  File "/Users/cpower/Development/web2py/gluon/globals.py", line 388, in <lambda>\n    self.meta = Storage()      # used by web2py_ajax.html\n  File "/Users/cpower/Development/web2py/applications/Practical1Part4/controllers/default.py", line 33, in index\n    jsonData = json.loads(jsonStr)\n  File "/opt/local/Library/Frameworks/Python.framework/Versions/2.7/lib/python2.7/json/__init__.py", line 338, in loads\n    return _default_decoder.decode(s)\n  File "/opt/local/Library/Frameworks/Python.framework/Versions/2.7/lib/python2.7/json/decoder.py", line 365, in decode\n    obj, end = self.raw_decode(s, idx=_w(s, 0).end())\n  File "/opt/local/Library/Frameworks/Python.framework/Versions/2.7/lib/python2.7/json/decoder.py", line 381, in raw_decode\n    obj, end = self.scan_once(s, idx)\nValueError: Expecting property name: line 2 column 13 (char 14)\n'
p11
s.