(dp1
S'output'
p2
S"<type 'exceptions.KeyError'> 0"
p3
sS'layer'
p4
S'/Users/cpower/Development/web2py/applications/Practical1Part4/controllers/default.py'
p5
sS'code'
p6
S'# -*- coding: utf-8 -*-\n# @IAPT: Very simple controller\n\nimport json\n\ndef index():\n    jsonStr = """\n            {\n            "id":"1",\n            "name":"Batman: Arkham Asylum",\n            "price":"9",\n            "type":"Book",\n            "description":"Written by Grant Morrison. Art and cover by Dave McKean In celebration of the 16th anniversary of the critically acclaimed Batman story that helped launch the U.S. careers of Grant Morrison and Dave McKean, DC Comics is proud to present a softcover edition of the Arkham Asylum Anniversary Edition, reprinting the now-classic confrontation between the Dark Knight and his archnemeses the Joker, Two-Face, Scarecrow, Poison Ivy, and more in the black heart of Gotham City&#39;s house for the criminally insane.",\n            "publisher":"DC Comics"\n            }"""\n    jsonDict = json.loads(jsonStr)\n\n    return dict(features=jsonDict[0])\n\nresponse._vars=response._caller(index)\n'
p7
sS'snapshot'
p8
(dp9
sS'traceback'
p10
S'Traceback (most recent call last):\n  File "/Users/cpower/Development/web2py/gluon/restricted.py", line 221, in restricted\n    ccode = code\n  File "/Users/cpower/Development/web2py/applications/Practical1Part4/controllers/default.py", line 20, in <module>\n  File "/Users/cpower/Development/web2py/gluon/globals.py", line 388, in <lambda>\n    self.meta = Storage()      # used by web2py_ajax.html\n  File "/Users/cpower/Development/web2py/applications/Practical1Part4/controllers/default.py", line 18, in index\n    return dict(features=jsonDict[0])\nKeyError: 0\n'
p11
s.